target datalayout = "e-m:e-p270:32:32-p271:32:32-p272:64:64-i64:64-i128:128-f80:128-n8:16:32:64-S128"
target triple = "x86_64-pc-linux-gnu"

%struct.poly1305_state_internal_t = type { [3 x i64], [3 x i64], [2 x i64], i64, [16 x i8], i8 }

; Function Attrs: alwaysinline nounwind
define internal ptr @memcpy.inline(ptr noalias nonnull %0, ptr noalias nonnull %1, i64 %2) #4 {
  %4 = alloca ptr, align 8
  %5 = alloca ptr, align 8
  %6 = alloca i64, align 8
  store ptr %0, ptr %4, align 8
  store ptr %1, ptr %5, align 8
  store i64 %2, ptr %6, align 8
  %7 = load ptr, ptr %4, align 8
  %8 = load ptr, ptr %5, align 8
  %9 = load i64, ptr %6, align 8
  %10 = load ptr, ptr %4, align 8
  %11 = call i64 @llvm.objectsize.i64.p0(ptr %10, i1 false, i1 true, i1 true)
  %12 = call ptr @__memcpy_chk(ptr noundef %7, ptr noundef %8, i64 noundef %9, i64 noundef %11) #8
  ret ptr %12
}

; Function Attrs: inlinehint nounwind ssp uwtable
define internal i64 @load64_le(ptr noundef %0) #3 {
  %2 = alloca ptr, align 8
  %3 = alloca i64, align 8
  store ptr %0, ptr %2, align 8
  call void @llvm.lifetime.start.p0(i64 8, ptr %3) #8
  %4 = load ptr, ptr %2, align 8
  %5 = call ptr @memcpy.inline(ptr noundef %3, ptr noundef %4, i64 noundef 8) #8
  %6 = load i64, ptr %3, align 8
  call void @llvm.lifetime.end.p0(i64 8, ptr %3) #8
  ret i64 %6
}

; Function Attrs: nounwind ssp uwtable
define internal void @poly1305_blocks(ptr noundef %0, ptr noundef %1, i64 noundef %2) #0 {
  %4 = alloca ptr, align 8
  %5 = alloca ptr, align 8
  %6 = alloca i64, align 8
  %7 = alloca i64, align 8
  %8 = alloca i64, align 8
  %9 = alloca i64, align 8
  %10 = alloca i64, align 8
  %11 = alloca i64, align 8
  %12 = alloca i64, align 8
  %13 = alloca i64, align 8
  %14 = alloca i64, align 8
  %15 = alloca i64, align 8
  %16 = alloca i64, align 8
  %17 = alloca i128, align 16
  %18 = alloca i128, align 16
  %19 = alloca i128, align 16
  %20 = alloca i128, align 16
  %21 = alloca i64, align 8
  %22 = alloca i64, align 8
  store ptr %0, ptr %4, align 8
  store ptr %1, ptr %5, align 8
  store i64 %2, ptr %6, align 8
  call void @llvm.lifetime.start.p0(i64 8, ptr %7) #8
  %23 = load ptr, ptr %4, align 8
  %24 = getelementptr inbounds nuw %struct.poly1305_state_internal_t, ptr %23, i32 0, i32 5
  %25 = load i8, ptr %24, align 8
  %26 = zext i8 %25 to i32
  %27 = icmp ne i32 %26, 0
  %28 = select i1 %27, i64 0, i64 1099511627776
  store i64 %28, ptr %7, align 8
  call void @llvm.lifetime.start.p0(i64 8, ptr %8) #8
  call void @llvm.lifetime.start.p0(i64 8, ptr %9) #8
  call void @llvm.lifetime.start.p0(i64 8, ptr %10) #8
  call void @llvm.lifetime.start.p0(i64 8, ptr %11) #8
  call void @llvm.lifetime.start.p0(i64 8, ptr %12) #8
  call void @llvm.lifetime.start.p0(i64 8, ptr %13) #8
  call void @llvm.lifetime.start.p0(i64 8, ptr %14) #8
  call void @llvm.lifetime.start.p0(i64 8, ptr %15) #8
  call void @llvm.lifetime.start.p0(i64 8, ptr %16) #8
  call void @llvm.lifetime.start.p0(i64 16, ptr %17) #8
  call void @llvm.lifetime.start.p0(i64 16, ptr %18) #8
  call void @llvm.lifetime.start.p0(i64 16, ptr %19) #8
  call void @llvm.lifetime.start.p0(i64 16, ptr %20) #8
  %29 = load ptr, ptr %4, align 8
  %30 = getelementptr inbounds nuw %struct.poly1305_state_internal_t, ptr %29, i32 0, i32 0
  %31 = getelementptr [3 x i64], ptr %30, i64 0, i64 0
  %32 = load i64, ptr %31, align 8
  store i64 %32, ptr %8, align 8
  %33 = load ptr, ptr %4, align 8
  %34 = getelementptr inbounds nuw %struct.poly1305_state_internal_t, ptr %33, i32 0, i32 0
  %35 = getelementptr [3 x i64], ptr %34, i64 0, i64 1
  %36 = load i64, ptr %35, align 8
  store i64 %36, ptr %9, align 8
  %37 = load ptr, ptr %4, align 8
  %38 = getelementptr inbounds nuw %struct.poly1305_state_internal_t, ptr %37, i32 0, i32 0
  %39 = getelementptr [3 x i64], ptr %38, i64 0, i64 2
  %40 = load i64, ptr %39, align 8
  store i64 %40, ptr %10, align 8
  %41 = load ptr, ptr %4, align 8
  %42 = getelementptr inbounds nuw %struct.poly1305_state_internal_t, ptr %41, i32 0, i32 1
  %43 = getelementptr [3 x i64], ptr %42, i64 0, i64 0
  %44 = load i64, ptr %43, align 8
  store i64 %44, ptr %13, align 8
  %45 = load ptr, ptr %4, align 8
  %46 = getelementptr inbounds nuw %struct.poly1305_state_internal_t, ptr %45, i32 0, i32 1
  %47 = getelementptr [3 x i64], ptr %46, i64 0, i64 1
  %48 = load i64, ptr %47, align 8
  store i64 %48, ptr %14, align 8
  %49 = load ptr, ptr %4, align 8
  %50 = getelementptr inbounds nuw %struct.poly1305_state_internal_t, ptr %49, i32 0, i32 1
  %51 = getelementptr [3 x i64], ptr %50, i64 0, i64 2
  %52 = load i64, ptr %51, align 8
  store i64 %52, ptr %15, align 8
  %53 = load i64, ptr %9, align 8
  %54 = mul i64 %53, 20
  store i64 %54, ptr %11, align 8
  %55 = load i64, ptr %10, align 8
  %56 = mul i64 %55, 20
  store i64 %56, ptr %12, align 8
  br label %57

57:                                               ; preds = %60, %3
  %58 = load i64, ptr %6, align 8
  %59 = icmp uge i64 %58, 16
  br i1 %59, label %60, label %190

60:                                               ; preds = %57
  call void @llvm.lifetime.start.p0(i64 8, ptr %21) #8
  call void @llvm.lifetime.start.p0(i64 8, ptr %22) #8
  %61 = load ptr, ptr %5, align 8
  %62 = getelementptr i8, ptr %61, i64 0
  %63 = call i64 @load64_le(ptr noundef %62)
  store i64 %63, ptr %21, align 8
  %64 = load ptr, ptr %5, align 8
  %65 = getelementptr i8, ptr %64, i64 8
  %66 = call i64 @load64_le(ptr noundef %65)
  store i64 %66, ptr %22, align 8
  %67 = load i64, ptr %21, align 8
  %68 = and i64 %67, 17592186044415
  %69 = load i64, ptr %13, align 8
  %70 = add i64 %69, %68
  store i64 %70, ptr %13, align 8
  %71 = load i64, ptr %21, align 8
  %72 = lshr i64 %71, 44
  %73 = load i64, ptr %22, align 8
  %74 = shl i64 %73, 20
  %75 = or i64 %72, %74
  %76 = and i64 %75, 17592186044415
  %77 = load i64, ptr %14, align 8
  %78 = add i64 %77, %76
  store i64 %78, ptr %14, align 8
  %79 = load i64, ptr %22, align 8
  %80 = lshr i64 %79, 24
  %81 = and i64 %80, 4398046511103
  %82 = load i64, ptr %7, align 8
  %83 = or i64 %81, %82
  %84 = load i64, ptr %15, align 8
  %85 = add i64 %84, %83
  store i64 %85, ptr %15, align 8
  %86 = load i64, ptr %13, align 8
  %87 = zext i64 %86 to i128
  %88 = load i64, ptr %8, align 8
  %89 = zext i64 %88 to i128
  %90 = mul i128 %87, %89
  store i128 %90, ptr %17, align 16
  %91 = load i64, ptr %14, align 8
  %92 = zext i64 %91 to i128
  %93 = load i64, ptr %12, align 8
  %94 = zext i64 %93 to i128
  %95 = mul i128 %92, %94
  store i128 %95, ptr %20, align 16
  %96 = load i128, ptr %20, align 16
  %97 = load i128, ptr %17, align 16
  %98 = add i128 %97, %96
  store i128 %98, ptr %17, align 16
  %99 = load i64, ptr %15, align 8
  %100 = zext i64 %99 to i128
  %101 = load i64, ptr %11, align 8
  %102 = zext i64 %101 to i128
  %103 = mul i128 %100, %102
  store i128 %103, ptr %20, align 16
  %104 = load i128, ptr %20, align 16
  %105 = load i128, ptr %17, align 16
  %106 = add i128 %105, %104
  store i128 %106, ptr %17, align 16
  %107 = load i64, ptr %13, align 8
  %108 = zext i64 %107 to i128
  %109 = load i64, ptr %9, align 8
  %110 = zext i64 %109 to i128
  %111 = mul i128 %108, %110
  store i128 %111, ptr %18, align 16
  %112 = load i64, ptr %14, align 8
  %113 = zext i64 %112 to i128
  %114 = load i64, ptr %8, align 8
  %115 = zext i64 %114 to i128
  %116 = mul i128 %113, %115
  store i128 %116, ptr %20, align 16
  %117 = load i128, ptr %20, align 16
  %118 = load i128, ptr %18, align 16
  %119 = add i128 %118, %117
  store i128 %119, ptr %18, align 16
  %120 = load i64, ptr %15, align 8
  %121 = zext i64 %120 to i128
  %122 = load i64, ptr %12, align 8
  %123 = zext i64 %122 to i128
  %124 = mul i128 %121, %123
  store i128 %124, ptr %20, align 16
  %125 = load i128, ptr %20, align 16
  %126 = load i128, ptr %18, align 16
  %127 = add i128 %126, %125
  store i128 %127, ptr %18, align 16
  %128 = load i64, ptr %13, align 8
  %129 = zext i64 %128 to i128
  %130 = load i64, ptr %10, align 8
  %131 = zext i64 %130 to i128
  %132 = mul i128 %129, %131
  store i128 %132, ptr %19, align 16
  %133 = load i64, ptr %14, align 8
  %134 = zext i64 %133 to i128
  %135 = load i64, ptr %9, align 8
  %136 = zext i64 %135 to i128
  %137 = mul i128 %134, %136
  store i128 %137, ptr %20, align 16
  %138 = load i128, ptr %20, align 16
  %139 = load i128, ptr %19, align 16
  %140 = add i128 %139, %138
  store i128 %140, ptr %19, align 16
  %141 = load i64, ptr %15, align 8
  %142 = zext i64 %141 to i128
  %143 = load i64, ptr %8, align 8
  %144 = zext i64 %143 to i128
  %145 = mul i128 %142, %144
  store i128 %145, ptr %20, align 16
  %146 = load i128, ptr %20, align 16
  %147 = load i128, ptr %19, align 16
  %148 = add i128 %147, %146
  store i128 %148, ptr %19, align 16
  %149 = load i128, ptr %17, align 16
  %150 = lshr i128 %149, 44
  %151 = trunc i128 %150 to i64
  store i64 %151, ptr %16, align 8
  %152 = load i128, ptr %17, align 16
  %153 = trunc i128 %152 to i64
  %154 = and i64 %153, 17592186044415
  store i64 %154, ptr %13, align 8
  %155 = load i64, ptr %16, align 8
  %156 = zext i64 %155 to i128
  %157 = load i128, ptr %18, align 16
  %158 = add i128 %157, %156
  store i128 %158, ptr %18, align 16
  %159 = load i128, ptr %18, align 16
  %160 = lshr i128 %159, 44
  %161 = trunc i128 %160 to i64
  store i64 %161, ptr %16, align 8
  %162 = load i128, ptr %18, align 16
  %163 = trunc i128 %162 to i64
  %164 = and i64 %163, 17592186044415
  store i64 %164, ptr %14, align 8
  %165 = load i64, ptr %16, align 8
  %166 = zext i64 %165 to i128
  %167 = load i128, ptr %19, align 16
  %168 = add i128 %167, %166
  store i128 %168, ptr %19, align 16
  %169 = load i128, ptr %19, align 16
  %170 = lshr i128 %169, 42
  %171 = trunc i128 %170 to i64
  store i64 %171, ptr %16, align 8
  %172 = load i128, ptr %19, align 16
  %173 = trunc i128 %172 to i64
  %174 = and i64 %173, 4398046511103
  store i64 %174, ptr %15, align 8
  %175 = load i64, ptr %16, align 8
  %176 = mul i64 %175, 5
  %177 = load i64, ptr %13, align 8
  %178 = add i64 %177, %176
  store i64 %178, ptr %13, align 8
  %179 = load i64, ptr %13, align 8
  %180 = lshr i64 %179, 44
  store i64 %180, ptr %16, align 8
  %181 = load i64, ptr %13, align 8
  %182 = and i64 %181, 17592186044415
  store i64 %182, ptr %13, align 8
  %183 = load i64, ptr %16, align 8
  %184 = load i64, ptr %14, align 8
  %185 = add i64 %184, %183
  store i64 %185, ptr %14, align 8
  %186 = load ptr, ptr %5, align 8
  %187 = getelementptr i8, ptr %186, i64 16
  store ptr %187, ptr %5, align 8
  %188 = load i64, ptr %6, align 8
  %189 = sub i64 %188, 16
  store i64 %189, ptr %6, align 8
  call void @llvm.lifetime.end.p0(i64 8, ptr %22) #8
  call void @llvm.lifetime.end.p0(i64 8, ptr %21) #8
  br label %57, !llvm.loop !8

190:                                              ; preds = %57
  %191 = load i64, ptr %13, align 8
  %192 = load ptr, ptr %4, align 8
  %193 = getelementptr inbounds nuw %struct.poly1305_state_internal_t, ptr %192, i32 0, i32 1
  %194 = getelementptr [3 x i64], ptr %193, i64 0, i64 0
  store i64 %191, ptr %194, align 8
  %195 = load i64, ptr %14, align 8
  %196 = load ptr, ptr %4, align 8
  %197 = getelementptr inbounds nuw %struct.poly1305_state_internal_t, ptr %196, i32 0, i32 1
  %198 = getelementptr [3 x i64], ptr %197, i64 0, i64 1
  store i64 %195, ptr %198, align 8
  %199 = load i64, ptr %15, align 8
  %200 = load ptr, ptr %4, align 8
  %201 = getelementptr inbounds nuw %struct.poly1305_state_internal_t, ptr %200, i32 0, i32 1
  %202 = getelementptr [3 x i64], ptr %201, i64 0, i64 2
  store i64 %199, ptr %202, align 8
  call void @llvm.lifetime.end.p0(i64 16, ptr %20) #8
  call void @llvm.lifetime.end.p0(i64 16, ptr %19) #8
  call void @llvm.lifetime.end.p0(i64 16, ptr %18) #8
  call void @llvm.lifetime.end.p0(i64 16, ptr %17) #8
  call void @llvm.lifetime.end.p0(i64 8, ptr %16) #8
  call void @llvm.lifetime.end.p0(i64 8, ptr %15) #8
  call void @llvm.lifetime.end.p0(i64 8, ptr %14) #8
  call void @llvm.lifetime.end.p0(i64 8, ptr %13) #8
  call void @llvm.lifetime.end.p0(i64 8, ptr %12) #8
  call void @llvm.lifetime.end.p0(i64 8, ptr %11) #8
  call void @llvm.lifetime.end.p0(i64 8, ptr %10) #8
  call void @llvm.lifetime.end.p0(i64 8, ptr %9) #8
  call void @llvm.lifetime.end.p0(i64 8, ptr %8) #8
  call void @llvm.lifetime.end.p0(i64 8, ptr %7) #8
  ret void
}