; Function Attrs: nofree norecurse nosync nounwind ssp memory(argmem: readwrite) uwtable
define internal fastcc void @poly1305_blocks(ptr noundef captures(none) %0, ptr noundef readonly captures(none) %1, i64 noundef range(i64 16, -15) %2) unnamed_addr #2 {
  %4 = getelementptr inbounds nuw i8, ptr %0, i64 88
  %5 = load i8, ptr %4, align 8
  %.not = icmp eq i8 %5, 0
  %6 = select i1 %.not, i64 1099511627776, i64 0
  %7 = load i64, ptr %0, align 8
  %8 = getelementptr i8, ptr %0, i64 8
  %9 = load i64, ptr %8, align 8
  %10 = getelementptr i8, ptr %0, i64 16
  %11 = load i64, ptr %10, align 8
  %12 = getelementptr inbounds nuw i8, ptr %0, i64 24
  %13 = load i64, ptr %12, align 8
  %14 = getelementptr i8, ptr %0, i64 32
  %15 = load i64, ptr %14, align 8
  %16 = getelementptr i8, ptr %0, i64 40
  %17 = load i64, ptr %16, align 8
  %18 = mul i64 %9, 20
  %19 = mul i64 %11, 20
  %20 = zext i64 %7 to i128
  %21 = zext i64 %19 to i128
  %22 = zext i64 %18 to i128
  %23 = zext i64 %9 to i128
  %24 = zext i64 %11 to i128
  br label %25

25:                                               ; preds = %3, %25
  %.081 = phi ptr [ %1, %3 ], [ %74, %25 ]
  %.07380 = phi i64 [ %2, %3 ], [ %75, %25 ]
  %.07479 = phi i64 [ %13, %3 ], [ %72, %25 ]
  %.07578 = phi i64 [ %15, %3 ], [ %73, %25 ]
  %.07677 = phi i64 [ %17, %3 ], [ %68, %25 ]
  %26 = load i64, ptr %.081, align 1
  %27 = getelementptr i8, ptr %.081, i64 8
  %28 = load i64, ptr %27, align 1
  %29 = and i64 %26, 17592186044415
  %30 = add i64 %29, %.07479
  %31 = tail call i64 @llvm.fshl.i64(i64 %28, i64 %26, i64 20)
  %32 = and i64 %31, 17592186044415
  %33 = add i64 %32, %.07578
  %34 = lshr i64 %28, 24
  %35 = add i64 %.07677, %6
  %36 = add i64 %35, %34
  %37 = zext i64 %30 to i128
  %38 = mul nuw i128 %37, %20
  %39 = zext i64 %33 to i128
  %40 = mul nuw i128 %39, %21
  %41 = add i128 %40, %38
  %42 = zext i64 %36 to i128
  %43 = mul nuw i128 %42, %22
  %44 = add i128 %41, %43
  %45 = mul nuw i128 %37, %23
  %46 = mul nuw i128 %39, %20
  %47 = add i128 %46, %45
  %48 = mul nuw i128 %42, %21
  %49 = add i128 %47, %48
  %50 = mul nuw i128 %37, %24
  %51 = mul nuw i128 %39, %23
  %52 = add i128 %51, %50
  %53 = mul nuw i128 %42, %20
  %54 = add i128 %52, %53
  %55 = lshr i128 %44, 44
  %56 = trunc i128 %44 to i64
  %57 = and i64 %56, 17592186044415
  %58 = and i128 %55, 18446744073709551615
  %59 = add i128 %49, %58
  %60 = lshr i128 %59, 44
  %61 = trunc i128 %59 to i64
  %62 = and i64 %61, 17592186044415
  %63 = and i128 %60, 18446744073709551615
  %64 = add i128 %54, %63
  %65 = lshr i128 %64, 42
  %66 = trunc i128 %65 to i64
  %67 = trunc i128 %64 to i64
  %68 = and i64 %67, 4398046511103
  %69 = mul i64 %66, 5
  %70 = add i64 %69, %57
  %71 = lshr i64 %70, 44
  %72 = and i64 %70, 17592186044415
  %73 = add nuw nsw i64 %71, %62
  %74 = getelementptr i8, ptr %.081, i64 16
  %75 = add i64 %.07380, -16
  %76 = icmp ugt i64 %75, 15
  br i1 %76, label %25, label %77, !llvm.loop !4

77:                                               ; preds = %25
  store i64 %72, ptr %12, align 8
  store i64 %73, ptr %14, align 8
  store i64 %68, ptr %16, align 8
  ret void
}